target datalayout = "e-m:e-p270:32:32-p271:32:32-p272:64:64-i64:64-i128:128-f80:128-n8:16:32:64-S128"
target triple = "x86_64-pc-linux-gnu"

%struct.Gia_ManUnr_t_ = type { ptr, ptr, ptr, ptr, ptr, ptr, ptr, ptr, ptr, ptr, i32 }
%struct.Gia_ParFra_t_ = type { i32, i32, i32, i32, i32, i32 }

; Function Attrs: nounwind uwtable
define ptr @Gia_ManUnroll(ptr noundef %0, ptr noundef %1) #0 {
  %3 = alloca ptr, align 8
  %4 = alloca ptr, align 8
  %5 = alloca ptr, align 8
  %6 = alloca ptr, align 8
  %7 = alloca ptr, align 8
  %8 = alloca i32, align 4
  store ptr %0, ptr %3, align 8, !tbaa !3
  store ptr %1, ptr %4, align 8, !tbaa !62
  call void @llvm.lifetime.start.p0(i64 8, ptr %5) #12
  call void @llvm.lifetime.start.p0(i64 8, ptr %6) #12
  call void @llvm.lifetime.start.p0(i64 8, ptr %7) #12
  call void @llvm.lifetime.start.p0(i64 4, ptr %8) #12
  %9 = load ptr, ptr %3, align 8, !tbaa !3
  %10 = load ptr, ptr %4, align 8, !tbaa !62
  %11 = call ptr @Gia_ManUnrollStart(ptr noundef %9, ptr noundef %10)
  store ptr %11, ptr %5, align 8, !tbaa !65
  store i32 1, ptr %8, align 4, !tbaa !10
  br label %12

12:                                               ; preds = %24, %2
  %13 = load i32, ptr %8, align 4, !tbaa !10
  %14 = load ptr, ptr %5, align 8, !tbaa !65
  %15 = getelementptr inbounds nuw %struct.Gia_ManUnr_t_, ptr %14, i32 0, i32 0
  %16 = load ptr, ptr %15, align 8, !tbaa !69
  %17 = getelementptr inbounds nuw %struct.Gia_ParFra_t_, ptr %16, i32 0, i32 0
  %18 = load i32, ptr %17, align 4, !tbaa !89
  %19 = icmp sle i32 %13, %18
  br i1 %19, label %20, label %27

20:                                               ; preds = %12
  %21 = load ptr, ptr %5, align 8, !tbaa !65
  %22 = load i32, ptr %8, align 4, !tbaa !10
  %23 = call ptr @Gia_ManUnrollAdd(ptr noundef %21, i32 noundef %22)
  br label %24

24:                                               ; preds = %20
  %25 = load i32, ptr %8, align 4, !tbaa !10
  %26 = add nsw i32 %25, 1
  store i32 %26, ptr %8, align 4, !tbaa !10
  br label %12, !llvm.loop !100

27:                                               ; preds = %12
  %28 = load ptr, ptr %5, align 8, !tbaa !65
  %29 = getelementptr inbounds nuw %struct.Gia_ManUnr_t_, ptr %28, i32 0, i32 9
  %30 = load ptr, ptr %29, align 8, !tbaa !87
  call void @Gia_ManHashStop(ptr noundef %30)
  %31 = load ptr, ptr %5, align 8, !tbaa !65
  %32 = getelementptr inbounds nuw %struct.Gia_ManUnr_t_, ptr %31, i32 0, i32 9
  %33 = load ptr, ptr %32, align 8, !tbaa !87
  call void @Gia_ManSetRegNum(ptr noundef %33, i32 noundef 0)
  %34 = load ptr, ptr %5, align 8, !tbaa !65
  %35 = getelementptr inbounds nuw %struct.Gia_ManUnr_t_, ptr %34, i32 0, i32 9
  %36 = load ptr, ptr %35, align 8, !tbaa !87
  store ptr %36, ptr %7, align 8, !tbaa !3
  %37 = call ptr @Gia_ManCleanup(ptr noundef %36)
  %38 = load ptr, ptr %5, align 8, !tbaa !65
  %39 = getelementptr inbounds nuw %struct.Gia_ManUnr_t_, ptr %38, i32 0, i32 9
  store ptr %37, ptr %39, align 8, !tbaa !87
  %40 = load ptr, ptr %7, align 8, !tbaa !3
  call void @Gia_ManStop(ptr noundef %40)
  %41 = load ptr, ptr %5, align 8, !tbaa !65
  %42 = getelementptr inbounds nuw %struct.Gia_ManUnr_t_, ptr %41, i32 0, i32 9
  %43 = load ptr, ptr %42, align 8, !tbaa !87
  store ptr %43, ptr %6, align 8, !tbaa !3
  %44 = load ptr, ptr %5, align 8, !tbaa !65
  %45 = getelementptr inbounds nuw %struct.Gia_ManUnr_t_, ptr %44, i32 0, i32 9
  store ptr null, ptr %45, align 8, !tbaa !87
  %46 = load ptr, ptr %5, align 8, !tbaa !65
  call void @Gia_ManUnrollStop(ptr noundef %46)
  %47 = load ptr, ptr %6, align 8, !tbaa !3
  call void @llvm.lifetime.end.p0(i64 4, ptr %8) #12
  call void @llvm.lifetime.end.p0(i64 8, ptr %7) #12
  call void @llvm.lifetime.end.p0(i64 8, ptr %6) #12
  call void @llvm.lifetime.end.p0(i64 8, ptr %5) #12
  ret ptr %47
}