; Function Attrs: nounwind uwtable
define ptr @Gia_ManUnroll(ptr noundef %0, ptr noundef %1) local_unnamed_addr #0 {
  %3 = tail call ptr @Gia_ManUnrollStart(ptr noundef %0, ptr noundef %1)
  %4 = load ptr, ptr %3, align 8, !tbaa !61
  %5 = load i32, ptr %4, align 4, !tbaa !80
  %.not15 = icmp slt i32 %5, 1
  br i1 %.not15, label %._crit_edge, label %.lr.ph

.lr.ph:                                           ; preds = %2, %.lr.ph
  %.016 = phi i32 [ %7, %.lr.ph ], [ 1, %2 ]
  %6 = tail call ptr @Gia_ManUnrollAdd(ptr noundef nonnull %3, i32 noundef %.016)
  %7 = add nuw nsw i32 %.016, 1
  %8 = load ptr, ptr %3, align 8, !tbaa !61
  %9 = load i32, ptr %8, align 4, !tbaa !80
  %.not.not = icmp slt i32 %.016, %9
  br i1 %.not.not, label %.lr.ph, label %._crit_edge, !llvm.loop !90

._crit_edge:                                      ; preds = %.lr.ph, %2
  %10 = getelementptr inbounds nuw i8, ptr %3, i64 72
  %11 = load ptr, ptr %10, align 8, !tbaa !78
  tail call void @Gia_ManHashStop(ptr noundef %11) #23
  tail call void @Gia_ManSetRegNum(ptr noundef %11, i32 noundef 0) #23
  %12 = tail call ptr @Gia_ManCleanup(ptr noundef %11) #23
  tail call void @Gia_ManStop(ptr noundef %11) #23
  store ptr null, ptr %10, align 8, !tbaa !78
  tail call void @Gia_ManUnrollStop(ptr noundef nonnull %3)
  ret ptr %12
}